; Function Attrs: nounwind uwtable
define hidden i32 @_Py_wreadlink(ptr noundef %0, ptr noundef %1, i64 noundef %2) local_unnamed_addr #0 {
  %4 = alloca ptr, align 8
  %5 = alloca ptr, align 8
  %6 = alloca [4096 x i8], align 16
  %7 = alloca i64, align 8
  call void @llvm.lifetime.start.p0(i64 4096, ptr nonnull %6) #17
  call void @llvm.lifetime.start.p0(i64 8, ptr nonnull %7) #17
  call void @llvm.lifetime.start.p0(i64 8, ptr nonnull %5) #17
  %8 = call fastcc i32 @encode_locale_ex(ptr noundef %0, ptr noundef nonnull %5, ptr noundef null, ptr noundef null, i32 noundef 1, i32 noundef 0, i32 noundef 2)
  %.not.i.i = icmp ne i32 %8, 0
  %9 = load ptr, ptr %5, align 8
  call void @llvm.lifetime.end.p0(i64 8, ptr nonnull %5) #17
  %10 = icmp eq ptr %9, null
  %11 = select i1 %.not.i.i, i1 true, i1 %10
  br i1 %11, label %12, label %14

12:                                               ; preds = %3
  %13 = tail call ptr @__errno_location() #19
  store i32 22, ptr %13, align 4, !tbaa !180
  br label %33

14:                                               ; preds = %3
  %15 = call i64 @readlink(ptr noundef nonnull %9, ptr noundef nonnull %6, i64 noundef 4096) #17
  call void @PyMem_RawFree(ptr noundef nonnull %9) #17
  switch i64 %15, label %18 [
    i64 -1, label %33
    i64 4096, label %16
  ]

16:                                               ; preds = %14
  %17 = tail call ptr @__errno_location() #19
  store i32 22, ptr %17, align 4, !tbaa !180
  br label %33

18:                                               ; preds = %14
  %19 = getelementptr [4096 x i8], ptr %6, i64 0, i64 %15
  store i8 0, ptr %19, align 1, !tbaa !175
  call void @llvm.lifetime.start.p0(i64 8, ptr nonnull %4) #17
  %20 = call i32 @_Py_DecodeLocaleEx(ptr noundef nonnull %6, ptr noundef nonnull %4, ptr noundef nonnull %7, ptr noundef null, i32 noundef 0, i32 noundef 2)
  %.not.i = icmp eq i32 %20, 0
  br i1 %.not.i, label %Py_DecodeLocale.exit, label %Py_DecodeLocale.exit.thread

Py_DecodeLocale.exit.thread:                      ; preds = %18
  call void @llvm.lifetime.end.p0(i64 8, ptr nonnull %4) #17
  br label %23

Py_DecodeLocale.exit:                             ; preds = %18
  %21 = load ptr, ptr %4, align 8, !tbaa !184
  call void @llvm.lifetime.end.p0(i64 8, ptr nonnull %4) #17
  %22 = icmp eq ptr %21, null
  br i1 %22, label %23, label %25

23:                                               ; preds = %Py_DecodeLocale.exit.thread, %Py_DecodeLocale.exit
  %24 = tail call ptr @__errno_location() #19
  store i32 22, ptr %24, align 4, !tbaa !180
  br label %33

25:                                               ; preds = %Py_DecodeLocale.exit
  %26 = load i64, ptr %7, align 8, !tbaa !183
  %.not = icmp ugt i64 %2, %26
  br i1 %.not, label %29, label %27

27:                                               ; preds = %25
  call void @PyMem_RawFree(ptr noundef nonnull %21) #17
  %28 = tail call ptr @__errno_location() #19
  store i32 22, ptr %28, align 4, !tbaa !180
  br label %33

29:                                               ; preds = %25
  %30 = call ptr @wcsncpy(ptr noundef %1, ptr noundef nonnull %21, i64 noundef %2) #17
  call void @PyMem_RawFree(ptr noundef nonnull %21) #17
  %31 = load i64, ptr %7, align 8, !tbaa !183
  %32 = trunc i64 %31 to i32
  br label %33

33:                                               ; preds = %14, %29, %27, %23, %16, %12
  %.0 = phi i32 [ -1, %12 ], [ -1, %16 ], [ -1, %23 ], [ -1, %27 ], [ %32, %29 ], [ -1, %14 ]
  call void @llvm.lifetime.end.p0(i64 8, ptr nonnull %7) #17
  call void @llvm.lifetime.end.p0(i64 4096, ptr nonnull %6) #17
  ret i32 %.0
}